target datalayout = "e-m:e-p270:32:32-p271:32:32-p272:64:64-i64:64-i128:128-f80:128-n8:16:32:64-S128"
target triple = "x86_64-pc-linux-gnu"

$_ZN32pxrInternal_v0_24__pxrReserved__9TfRegTest4MainEiPPc = comdat any

; Function Attrs: mustprogress norecurse uwtable
define dso_local noundef i32 @main(i32 noundef %0, ptr noundef %1) #0 {
  %3 = alloca i32, align 4
  %4 = alloca i32, align 4
  %5 = alloca ptr, align 8
  store i32 0, ptr %3, align 4
  store i32 %0, ptr %4, align 4
  store ptr %1, ptr %5, align 8
  %6 = load i32, ptr %4, align 4
  %7 = load ptr, ptr %5, align 8
  %8 = call noundef i32 @_ZN32pxrInternal_v0_24__pxrReserved__9TfRegTest4MainEiPPc(i32 noundef %6, ptr noundef %7)
  ret i32 %8
}

; Function Attrs: mustprogress uwtable
define linkonce_odr dso_local noundef i32 @_ZN32pxrInternal_v0_24__pxrReserved__9TfRegTest4MainEiPPc(i32 noundef %0, ptr noundef %1) #1 comdat align 2 {
  %3 = alloca i32, align 4
  %4 = alloca ptr, align 8
  store i32 %0, ptr %3, align 4
  store ptr %1, ptr %4, align 8
  %5 = call noundef nonnull align 8 dereferenceable(112) ptr @_ZN32pxrInternal_v0_24__pxrReserved__9TfRegTest11GetInstanceEv()
  %6 = load i32, ptr %3, align 4
  %7 = load ptr, ptr %4, align 8
  %8 = call noundef i32 @_ZN32pxrInternal_v0_24__pxrReserved__9TfRegTest5_MainEiPPc(ptr noundef nonnull align 8 dereferenceable(112) %5, i32 noundef %6, ptr noundef %7)
  ret i32 %8
}

declare noundef nonnull align 8 dereferenceable(112) ptr @_ZN32pxrInternal_v0_24__pxrReserved__9TfRegTest11GetInstanceEv() #2

declare noundef i32 @_ZN32pxrInternal_v0_24__pxrReserved__9TfRegTest5_MainEiPPc(ptr noundef nonnull align 8 dereferenceable(112), i32 noundef, ptr noundef) #2


!llvm.module.flags = !{!0, !1, !2, !3, !4}

!0 = !{i32 1, !"wchar_size", i32 4}
!1 = !{i32 8, !"PIC Level", i32 2}
!2 = !{i32 7, !"PIE Level", i32 2}
!3 = !{i32 7, !"uwtable", i32 2}
!4 = !{i32 7, !"frame-pointer", i32 2}
