; ModuleID = 'bench/openusd/original/main.cpp.ll'
source_filename = "bench/openusd/original/main.cpp.ll"
target datalayout = "e-m:e-p270:32:32-p271:32:32-p272:64:64-i64:64-i128:128-f80:128-n8:16:32:64-S128"
target triple = "x86_64-pc-linux-gnu"

; Function Attrs: mustprogress norecurse uwtable
define dso_local noundef i32 @main(i32 noundef %0, ptr noundef %1) local_unnamed_addr #0 {
  %3 = tail call noundef nonnull align 8 dereferenceable(112) ptr @_ZN32pxrInternal_v0_24__pxrReserved__9TfRegTest11GetInstanceEv()
  %4 = tail call noundef i32 @_ZN32pxrInternal_v0_24__pxrReserved__9TfRegTest5_MainEiPPc(ptr noundef nonnull align 8 dereferenceable(112) %3, i32 noundef %0, ptr noundef %1)
  ret i32 %4
}

declare noundef nonnull align 8 dereferenceable(112) ptr @_ZN32pxrInternal_v0_24__pxrReserved__9TfRegTest11GetInstanceEv() local_unnamed_addr #1

declare noundef i32 @_ZN32pxrInternal_v0_24__pxrReserved__9TfRegTest5_MainEiPPc(ptr noundef nonnull align 8 dereferenceable(112), i32 noundef, ptr noundef) local_unnamed_addr #1


!llvm.module.flags = !{!0, !1, !2, !3, !4}

!0 = !{i32 1, !"wchar_size", i32 4}
!1 = !{i32 8, !"PIC Level", i32 2}
!2 = !{i32 7, !"PIE Level", i32 2}
!3 = !{i32 7, !"uwtable", i32 2}
!4 = !{i32 7, !"frame-pointer", i32 2}
